(lp0
(iPreprocessData.GraphEdgeSegment
GraphEdgeSegment
p1
(dp2
S'HasLoadedImage'
p3
(lp4
I01
asS'End'
p5
(F50.17562
F14.626453
tp6
sS'SegmentId'
p7
I666
sS'ElevationStart'
p8
F202.0
sS'ProjectedStart'
p9
(F1035284.0
F726902.0
tp10
sS'ElevationEnd'
p11
F200.0
sS'ToId'
p12
I70855
sS'Start'
p13
(F50.175617
F14.627134
tp14
sS'ProjectedEnd'
p15
(F1035277.0
F726950.0
tp16
sS'FromId'
p17
I70854
sba(iPreprocessData.GraphEdgeSegment
GraphEdgeSegment
p18
(dp19
g3
(lp20
I01
asg5
(F50.175626
F14.625957
tp21
sg7
I667
sg8
F200.0
sg9
(F1035277.0
F726950.0
tp22
sg11
F198.0
sg12
I512289
sg13
(F50.17562
F14.626453
tp23
sg15
(F1035272.0
F726985.0
tp24
sg17
I70855
sba(iPreprocessData.GraphEdgeSegment
GraphEdgeSegment
p25
(dp26
g3
(lp27
I01
asg5
(F50.175693
F14.625709
tp28
sg7
I668
sg8
F198.0
sg9
(F1035272.0
F726985.0
tp29
sg11
F197.0
sg12
I2232
sg13
(F50.175626
F14.625957
tp30
sg15
(F1035262.0
F727001.0
tp31
sg17
I512289
sba(iPreprocessData.GraphEdgeSegment
GraphEdgeSegment
p32
(dp33
g3
(lp34
I01
asg5
(F50.175976
F14.625814
tp35
sg7
I669
sg8
F197.0
sg9
(F1035262.0
F727001.0
tp36
sg11
F196.0
sg12
I70851
sg13
(F50.175693
F14.625709
tp37
sg15
(F1035232.0
F726990.0
tp38
sg17
I2232
sba(iPreprocessData.GraphEdgeSegment
GraphEdgeSegment
p39
(dp40
g3
(lp41
I01
asg5
(F50.176374
F14.625812
tp42
sg7
I670
sg8
F196.0
sg9
(F1035232.0
F726990.0
tp43
sg11
F196.0
sg12
I70850
sg13
(F50.175976
F14.625814
tp44
sg15
(F1035188.0
F726984.0
tp45
sg17
I70851
sba(iPreprocessData.GraphEdgeSegment
GraphEdgeSegment
p46
(dp47
g3
(lp48
I01
asg5
(F50.176603
F14.625801
tp49
sg7
I671
sg8
F196.0
sg9
(F1035188.0
F726984.0
tp50
sg11
F196.0
sg12
I201890
sg13
(F50.176374
F14.625812
tp51
sg15
(F1035163.0
F726981.0
tp52
sg17
I70850
sba(iPreprocessData.GraphEdgeSegment
GraphEdgeSegment
p53
(dp54
g3
(lp55
I01
asg5
(F50.176758
F14.625778
tp56
sg7
I672
sg8
F196.0
sg9
(F1035163.0
F726981.0
tp57
sg11
F197.0
sg12
I512290
sg13
(F50.176603
F14.625801
tp58
sg15
(F1035145.0
F726981.0
tp59
sg17
I201890
sba(iPreprocessData.GraphEdgeSegment
GraphEdgeSegment
p60
(dp61
g3
(lp62
I01
asg5
(F50.176901
F14.625702
tp63
sg7
I673
sg8
F197.0
sg9
(F1035145.0
F726981.0
tp64
sg11
F198.0
sg12
I2233
sg13
(F50.176758
F14.625778
tp65
sg15
(F1035129.0
F726984.0
tp66
sg17
I512290
sba(iPreprocessData.GraphEdgeSegment
GraphEdgeSegment
p67
(dp68
g3
(lp69
I01
asg5
(F50.177256
F14.625392
tp70
sg7
I674
sg8
F198.0
sg9
(F1035129.0
F726984.0
tp71
sg11
F200.0
sg12
I2234
sg13
(F50.176901
F14.625702
tp72
sg15
(F1035087.0
F727000.0
tp73
sg17
I2233
sba(iPreprocessData.GraphEdgeSegment
GraphEdgeSegment
p74
(dp75
g3
(lp76
I01
asg5
(F50.177619
F14.625232
tp77
sg7
I675
sg8
F200.0
sg9
(F1035087.0
F727000.0
tp78
sg11
F202.0
sg12
I90254
sg13
(F50.177256
F14.625392
tp79
sg15
(F1035045.0
F727006.0
tp80
sg17
I2234
sba(iPreprocessData.GraphEdgeSegment
GraphEdgeSegment
p81
(dp82
g3
(lp83
I01
asg5
(F50.087438
F14.452952
tp84
sg7
I676
sg8
F224.0
sg9
(F1043325.0
F740556.0
tp85
sg11
F224.0
sg12
I137624
sg13
(F50.087437
F14.453037
tp86
sg15
(F1043324.0
F740562.0
tp87
sg17
I3236
sba(iPreprocessData.GraphEdgeSegment
GraphEdgeSegment
p88
(dp89
g3
(lp90
I01
asg5
(F50.042715
F14.561148
tp91
sg7
I677
sg8
F293.0
sg9
(F1049307.0
F733558.0
tp92
sg11
F292.0
sg12
I205340
sg13
(F50.042649
F14.561194
tp93
sg15
(F1049300.0
F733560.0
tp94
sg17
I39835
sba(iPreprocessData.GraphEdgeSegment
GraphEdgeSegment
p95
(dp96
g3
(lp97
I01
asg5
(F50.042841
F14.561105
tp98
sg7
I678
sg8
F292.0
sg9
(F1049300.0
F733560.0
tp99
sg11
F292.0
sg12
I1612
sg13
(F50.042715
F14.561148
tp100
sg15
(F1049285.0
F733561.0
tp101
sg17
I205340
sba(iPreprocessData.GraphEdgeSegment
GraphEdgeSegment
p102
(dp103
g3
(lp104
I01
asg5
(F50.042902
F14.561044
tp105
sg7
I679
sg8
F292.0
sg9
(F1049285.0
F733561.0
tp106
sg11
F291.0
sg12
I210345
sg13
(F50.042841
F14.561105
tp107
sg15
(F1049278.0
F733565.0
tp108
sg17
I1612
sba(iPreprocessData.GraphEdgeSegment
GraphEdgeSegment
p109
(dp110
g3
(lp111
I01
asg5
(F50.043108
F14.560831
tp112
sg7
I680
sg8
F291.0
sg9
(F1049278.0
F733565.0
tp113
sg11
F290.0
sg12
I1623
sg13
(F50.042902
F14.561044
tp114
sg15
(F1049253.0
F733577.0
tp115
sg17
I210345
sba(iPreprocessData.GraphEdgeSegment
GraphEdgeSegment
p116
(dp117
g3
(lp118
I01
asg5
(F50.052085
F14.45361
tp119
sg7
I681
sg8
F220.0
sg9
(F1047227.0
F741036.0
tp120
sg11
F221.0
sg12
I887
sg13
(F50.052096
F14.453807
tp121
sg15
(F1047226.0
F741050.0
tp122
sg17
I322
sba(iPreprocessData.GraphEdgeSegment
GraphEdgeSegment
p123
(dp124
g3
(lp125
I01
asg5
(F50.140976
F14.577524
tp126
sg7
I682
sg8
F254.0
sg9
(F1038638.0
F730942.0
tp127
sg11
F254.0
sg12
I255799
sg13
(F50.140873
F14.577377
tp128
sg15
(F1038628.0
F730930.0
tp129
sg17
I170
sba(iPreprocessData.GraphEdgeSegment
GraphEdgeSegment
p130
(dp131
g3
(lp132
I01
asg5
(F50.140998
F14.577546
tp133
sg7
I683
sg8
F254.0
sg9
(F1038628.0
F730930.0
tp134
sg11
F254.0
sg12
I340229
sg13
(F50.140976
F14.577524
tp135
sg15
(F1038625.0
F730929.0
tp136
sg17
I255799
sba(iPreprocessData.GraphEdgeSegment
GraphEdgeSegment
p137
(dp138
g3
(lp139
I01
asg5
(F50.141058
F14.577606
tp140
sg7
I684
sg8
F254.0
sg9
(F1038625.0
F730929.0
tp141
sg11
F254.0
sg12
I255774
sg13
(F50.140998
F14.577546
tp142
sg15
(F1038619.0
F730923.0
tp143
sg17
I340229
sba(iPreprocessData.GraphEdgeSegment
GraphEdgeSegment
p144
(dp145
g3
(lp146
I01
asg5
(F50.141194
F14.577664
tp147
sg7
I685
sg8
F254.0
sg9
(F1038619.0
F730923.0
tp148
sg11
F254.0
sg12
I19591
sg13
(F50.141058
F14.577606
tp149
sg15
(F1038605.0
F730917.0
tp150
sg17
I255774
sba(iPreprocessData.GraphEdgeSegment
GraphEdgeSegment
p151
(dp152
g3
(lp153
I01
asg5
(F50.141458
F14.577705
tp154
sg7
I686
sg8
F254.0
sg9
(F1038605.0
F730917.0
tp155
sg11
F254.0
sg12
I213645
sg13
(F50.141194
F14.577664
tp156
sg15
(F1038576.0
F730910.0
tp157
sg17
I19591
sba(iPreprocessData.GraphEdgeSegment
GraphEdgeSegment
p158
(dp159
g3
(lp160
I01
asg5
(F50.141949
F14.577795
tp161
sg7
I687
sg8
F254.0
sg9
(F1038576.0
F730910.0
tp162
sg11
F253.0
sg12
I19590
sg13
(F50.141458
F14.577705
tp163
sg15
(F1038523.0
F730897.0
tp164
sg17
I213645
sba(iPreprocessData.GraphEdgeSegment
GraphEdgeSegment
p165
(dp166
g3
(lp167
I01
asg5
(F50.142094
F14.577842
tp168
sg7
I688
sg8
F253.0
sg9
(F1038523.0
F730897.0
tp169
sg11
F252.0
sg12
I255694
sg13
(F50.141949
F14.577795
tp170
sg15
(F1038507.0
F730891.0
tp171
sg17
I19590
sba(iPreprocessData.GraphEdgeSegment
GraphEdgeSegment
p172
(dp173
g3
(lp174
I01
asg5
(F50.142211
F14.577928
tp175
sg7
I689
sg8
F252.0
sg9
(F1038507.0
F730891.0
tp176
sg11
F252.0
sg12
I2211
sg13
(F50.142094
F14.577842
tp177
sg15
(F1038495.0
F730883.0
tp178
sg17
I255694
sba(iPreprocessData.GraphEdgeSegment
GraphEdgeSegment
p179
(dp180
g3
(lp181
I01
asg5
(F50.143264
F14.578894
tp182
sg7
I690
sg8
F252.0
sg9
(F1038495.0
F730883.0
tp183
sg11
F249.0
sg12
I255686
sg13
(F50.142211
F14.577928
tp184
sg15
(F1038389.0
F730799.0
tp185
sg17
I2211
sba(iPreprocessData.GraphEdgeSegment
GraphEdgeSegment
p186
(dp187
g3
(lp188
I01
asg5
(F50.143365
F14.578986
tp189
sg7
I691
sg8
F249.0
sg9
(F1038389.0
F730799.0
tp190
sg11
F249.0
sg12
I44372
sg13
(F50.143264
F14.578894
tp191
sg15
(F1038378.0
F730791.0
tp192
sg17
I255686
sba(iPreprocessData.GraphEdgeSegment
GraphEdgeSegment
p193
(dp194
g3
(lp195
I01
asg5
(F50.068425
F14.364284
tp196
sg7
I692
sg8
F258.0
sg9
(F1044563.0
F747131.0
tp197
sg11
F257.0
sg12
I240997
sg13
(F50.068346
F14.364401
tp198
sg15
(F1044553.0
F747138.0
tp199
sg17
I240998
sba(iPreprocessData.GraphEdgeSegment
GraphEdgeSegment
p200
(dp201
g3
(lp202
I01
asg5
(F50.068397
F14.362631
tp203
sg7
I693
sg8
F257.0
sg9
(F1044553.0
F747138.0
tp204
sg11
F264.0
sg12
I156671
sg13
(F50.068425
F14.364284
tp205
sg15
(F1044540.0
F747256.0
tp206
sg17
I240997
sba(iPreprocessData.GraphEdgeSegment
GraphEdgeSegment
p207
(dp208
g3
(lp209
I01
asg5
(F50.068392
F14.362211
tp210
sg7
I694
sg8
F264.0
sg9
(F1044540.0
F747256.0
tp211
sg11
F264.0
sg12
I1078
sg13
(F50.068397
F14.362631
tp212
sg15
(F1044536.0
F747285.0
tp213
sg17
I156671
sba(iPreprocessData.GraphEdgeSegment
GraphEdgeSegment
p214
(dp215
g3
(lp216
I01
asg5
(F50.068352
F14.36078
tp217
sg7
I695
sg8
F264.0
sg9
(F1044536.0
F747285.0
tp218
sg11
F265.0
sg12
I1079
sg13
(F50.068392
F14.362211
tp219
sg15
(F1044526.0
F747387.0
tp220
sg17
I1078
sba(iPreprocessData.GraphEdgeSegment
GraphEdgeSegment
p221
(dp222
g3
(lp223
I01
asg5
(F50.068321
F14.359917
tp224
sg7
I696
sg8
F265.0
sg9
(F1044526.0
F747387.0
tp225
sg11
F270.0
sg12
I1080
sg13
(F50.068352
F14.36078
tp226
sg15
(F1044521.0
F747449.0
tp227
sg17
I1079
sba(iPreprocessData.GraphEdgeSegment
GraphEdgeSegment
p228
(dp229
g3
(lp230
I01
asg5
(F50.068388
F14.35958
tp231
sg7
I697
sg8
F270.0
sg9
(F1044521.0
F747449.0
tp232
sg11
F268.0
sg12
I143837
sg13
(F50.068321
F14.359917
tp233
sg15
(F1044511.0
F747472.0
tp234
sg17
I1080
sba(iPreprocessData.GraphEdgeSegment
GraphEdgeSegment
p235
(dp236
g3
(lp237
I01
asg5
(F50.200606
F14.599774
tp238
sg7
I698
sg8
F186.0
sg9
(F1032303.0
F728491.0
tp239
sg11
F185.0
sg12
I62106
sg13
(F50.200271
F14.599485
tp240
sg15
(F1032268.0
F728466.0
tp241
sg17
I2256
sba(iPreprocessData.GraphEdgeSegment
GraphEdgeSegment
p242
(dp243
g3
(lp244
I01
asg5
(F50.202236
F14.601886
tp245
sg7
I699
sg8
F185.0
sg9
(F1032268.0
F728466.0
tp246
sg11
F182.0
sg12
I2258
sg13
(F50.200606
F14.599774
tp247
sg15
(F1032109.0
F728292.0
tp248
sg17
I62106
sba.