(lp0
(iPreprocessData.GraphEdgeSegment
GraphEdgeSegment
p1
(dp2
S'HasLoadedImage'
p3
(lp4
I01
asS'End'
p5
(F50.048562
F14.43634
tp6
sS'SegmentId'
p7
I0
sS'ElevationStart'
p8
F269.0
sS'ProjectedStart'
p9
(F1047434.0
F742326.0
tp10
sS'ElevationEnd'
p11
F269.0
sS'ToId'
p12
I200449
sS'Start'
p13
(F50.048671
F14.436354
tp14
sS'ProjectedEnd'
p15
(F1047446.0
F742329.0
tp16
sS'FromId'
p17
I673
sba(iPreprocessData.GraphEdgeSegment
GraphEdgeSegment
p18
(dp19
g3
(lp20
I01
asg5
(F50.048387
F14.436307
tp21
sg7
I1
sg8
F269.0
sg9
(F1047446.0
F742329.0
tp22
sg11
F269.0
sg12
I254556
sg13
(F50.048562
F14.43634
tp23
sg15
(F1047465.0
F742334.0
tp24
sg17
I200449
sba(iPreprocessData.GraphEdgeSegment
GraphEdgeSegment
p25
(dp26
g3
(lp27
I01
asg5
(F50.048284
F14.43629
tp28
sg7
I2
sg8
F269.0
sg9
(F1047465.0
F742334.0
tp29
sg11
F269.0
sg12
I200434
sg13
(F50.048387
F14.436307
tp30
sg15
(F1047476.0
F742336.0
tp31
sg17
I254556
sba(iPreprocessData.GraphEdgeSegment
GraphEdgeSegment
p32
(dp33
g3
(lp34
I01
asg5
(F50.047993
F14.436241
tp35
sg7
I3
sg8
F269.0
sg9
(F1047476.0
F742336.0
tp36
sg11
F272.0
sg12
I426113
sg13
(F50.048284
F14.43629
tp37
sg15
(F1047508.0
F742344.0
tp38
sg17
I200434
sba(iPreprocessData.GraphEdgeSegment
GraphEdgeSegment
p39
(dp40
g3
(lp41
I01
asg5
(F50.091035
F14.576333
tp42
sg7
I4
sg8
F230.0
sg9
(F1044119.0
F731758.0
tp43
sg11
F230.0
sg12
I339775
sg13
(F50.091049
F14.576373
tp44
sg15
(F1044120.0
F731761.0
tp45
sg17
I1206
sba(iPreprocessData.GraphEdgeSegment
GraphEdgeSegment
p46
(dp47
g3
(lp48
I01
asg5
(F50.090976
F14.576138
tp49
sg7
I5
sg8
F230.0
sg9
(F1044120.0
F731761.0
tp50
sg11
F230.0
sg12
I27952
sg13
(F50.091035
F14.576333
tp51
sg15
(F1044125.0
F731775.0
tp52
sg17
I339775
sba(iPreprocessData.GraphEdgeSegment
GraphEdgeSegment
p53
(dp54
g3
(lp55
I01
asg5
(F50.090584
F14.576383
tp56
sg7
I6
sg8
F230.0
sg9
(F1044125.0
F731775.0
tp57
sg11
F229.0
sg12
I1207
sg13
(F50.090976
F14.576138
tp58
sg15
(F1044171.0
F731764.0
tp59
sg17
I27952
sba(iPreprocessData.GraphEdgeSegment
GraphEdgeSegment
p60
(dp61
g3
(lp62
I01
asg5
(F50.090086
F14.576571
tp63
sg7
I7
sg8
F229.0
sg9
(F1044171.0
F731764.0
tp64
sg11
F228.0
sg12
I1208
sg13
(F50.090584
F14.576383
tp65
sg15
(F1044227.0
F731758.0
tp66
sg17
I1207
sba(iPreprocessData.GraphEdgeSegment
GraphEdgeSegment
p67
(dp68
g3
(lp69
I01
asg5
(F50.089875
F14.576725
tp70
sg7
I8
sg8
F228.0
sg9
(F1044227.0
F731758.0
tp71
sg11
F227.0
sg12
I108446
sg13
(F50.090086
F14.576571
tp72
sg15
(F1044252.0
F731750.0
tp73
sg17
I1208
sba(iPreprocessData.GraphEdgeSegment
GraphEdgeSegment
p74
(dp75
g3
(lp76
I01
asg5
(F50.089534
F14.576988
tp77
sg7
I9
sg8
F227.0
sg9
(F1044252.0
F731750.0
tp78
sg11
F227.0
sg12
I538241
sg13
(F50.089875
F14.576725
tp79
sg15
(F1044292.0
F731737.0
tp80
sg17
I108446
sba(iPreprocessData.GraphEdgeSegment
GraphEdgeSegment
p81
(dp82
g3
(lp83
I01
asg5
(F50.089458
F14.577047
tp84
sg7
I10
sg8
F227.0
sg9
(F1044292.0
F731737.0
tp85
sg11
F226.0
sg12
I108443
sg13
(F50.089534
F14.576988
tp86
sg15
(F1044301.0
F731734.0
tp87
sg17
I538241
sba(iPreprocessData.GraphEdgeSegment
GraphEdgeSegment
p88
(dp89
g3
(lp90
I01
asg5
(F50.089318
F14.577202
tp91
sg7
I11
sg8
F226.0
sg9
(F1044301.0
F731734.0
tp92
sg11
F226.0
sg12
I1209
sg13
(F50.089458
F14.577047
tp93
sg15
(F1044318.0
F731725.0
tp94
sg17
I108443
sba(iPreprocessData.GraphEdgeSegment
GraphEdgeSegment
p95
(dp96
g3
(lp97
I00
asg5
(F50.041908
F14.246514
tp98
sg7
I12
sg8
F396.0
sg9
(F1046176.0
F755918.0
tp99
sg11
F392.0
sg12
I512106
sg13
(F50.043083
F14.245965
tp100
sg15
(F1046311.0
F755897.0
tp101
sg17
I3079
sba(iPreprocessData.GraphEdgeSegment
GraphEdgeSegment
p102
(dp103
g3
(lp104
I00
asg5
(F50.041322
F14.246788
tp105
sg7
I13
sg8
F392.0
sg9
(F1046311.0
F755897.0
tp106
sg11
F391.0
sg12
I512099
sg13
(F50.041908
F14.246514
tp107
sg15
(F1046378.0
F755887.0
tp108
sg17
I512106
sba(iPreprocessData.GraphEdgeSegment
GraphEdgeSegment
p109
(dp110
g3
(lp111
I00
asg5
(F50.041197
F14.246847
tp112
sg7
I14
sg8
F391.0
sg9
(F1046378.0
F755887.0
tp113
sg11
F390.0
sg12
I357976
sg13
(F50.041322
F14.246788
tp114
sg15
(F1046393.0
F755884.0
tp115
sg17
I512099
sba(iPreprocessData.GraphEdgeSegment
GraphEdgeSegment
p116
(dp117
g3
(lp118
I00
asg5
(F50.041059
F14.246912
tp119
sg7
I15
sg8
F390.0
sg9
(F1046393.0
F755884.0
tp120
sg11
F390.0
sg12
I512104
sg13
(F50.041197
F14.246847
tp121
sg15
(F1046409.0
F755882.0
tp122
sg17
I357976
sba(iPreprocessData.GraphEdgeSegment
GraphEdgeSegment
p123
(dp124
g3
(lp125
I00
asg5
(F50.040917
F14.246978
tp126
sg7
I16
sg8
F390.0
sg9
(F1046409.0
F755882.0
tp127
sg11
F390.0
sg12
I3078
sg13
(F50.041059
F14.246912
tp128
sg15
(F1046425.0
F755879.0
tp129
sg17
I512104
sba(iPreprocessData.GraphEdgeSegment
GraphEdgeSegment
p130
(dp131
g3
(lp132
I00
asg5
(F50.040801
F14.247032
tp133
sg7
I17
sg8
F390.0
sg9
(F1046425.0
F755879.0
tp134
sg11
F390.0
sg12
I357973
sg13
(F50.040917
F14.246978
tp135
sg15
(F1046438.0
F755877.0
tp136
sg17
I3078
sba(iPreprocessData.GraphEdgeSegment
GraphEdgeSegment
p137
(dp138
g3
(lp139
I00
asg5
(F50.039975
F14.247419
tp140
sg7
I18
sg8
F390.0
sg9
(F1046438.0
F755877.0
tp141
sg11
F391.0
sg12
I357967
sg13
(F50.040801
F14.247032
tp142
sg15
(F1046533.0
F755863.0
tp143
sg17
I357973
sba(iPreprocessData.GraphEdgeSegment
GraphEdgeSegment
p144
(dp145
g3
(lp146
I01
asg5
(F50.05083
F14.294612
tp147
sg7
I19
sg8
F385.0
sg9
(F1045811.0
F752343.0
tp148
sg11
F385.0
sg12
I228417
sg13
(F50.050783
F14.294695
tp149
sg15
(F1045805.0
F752348.0
tp150
sg17
I228427
sba(iPreprocessData.GraphEdgeSegment
GraphEdgeSegment
p151
(dp152
g3
(lp153
I01
asg5
(F50.050718
F14.294255
tp154
sg7
I20
sg8
F385.0
sg9
(F1045805.0
F752348.0
tp155
sg11
F386.0
sg12
I460969
sg13
(F50.05083
F14.294612
tp156
sg15
(F1045814.0
F752375.0
tp157
sg17
I228417
sba(iPreprocessData.GraphEdgeSegment
GraphEdgeSegment
p158
(dp159
g3
(lp160
I01
asg5
(F50.05067
F14.294166
tp161
sg7
I21
sg8
F386.0
sg9
(F1045814.0
F752375.0
tp162
sg11
F386.0
sg12
I228371
sg13
(F50.050718
F14.294255
tp163
sg15
(F1045818.0
F752382.0
tp164
sg17
I460969
sba(iPreprocessData.GraphEdgeSegment
GraphEdgeSegment
p165
(dp166
g3
(lp167
I01
asg5
(F50.050242
F14.293901
tp168
sg7
I22
sg8
F386.0
sg9
(F1045818.0
F752382.0
tp169
sg11
F387.0
sg12
I228359
sg13
(F50.05067
F14.294166
tp170
sg15
(F1045863.0
F752408.0
tp171
sg17
I228371
sba(iPreprocessData.GraphEdgeSegment
GraphEdgeSegment
p172
(dp173
g3
(lp174
I01
asg5
(F50.050166
F14.293922
tp175
sg7
I23
sg8
F387.0
sg9
(F1045863.0
F752408.0
tp176
sg11
F387.0
sg12
I430426
sg13
(F50.050242
F14.293901
tp177
sg15
(F1045871.0
F752407.0
tp178
sg17
I228359
sba(iPreprocessData.GraphEdgeSegment
GraphEdgeSegment
p179
(dp180
g3
(lp181
I01
asg5
(F50.050119
F14.293992
tp182
sg7
I24
sg8
F387.0
sg9
(F1045871.0
F752407.0
tp183
sg11
F387.0
sg12
I430427
sg13
(F50.050166
F14.293922
tp184
sg15
(F1045877.0
F752403.0
tp185
sg17
I430426
sba(iPreprocessData.GraphEdgeSegment
GraphEdgeSegment
p186
(dp187
g3
(lp188
I01
asg5
(F50.050107
F14.294127
tp189
sg7
I25
sg8
F387.0
sg9
(F1045877.0
F752403.0
tp190
sg11
F387.0
sg12
I430428
sg13
(F50.050119
F14.293992
tp191
sg15
(F1045880.0
F752394.0
tp192
sg17
I430427
sba(iPreprocessData.GraphEdgeSegment
GraphEdgeSegment
p193
(dp194
g3
(lp195
I01
asg5
(F50.050152
F14.294244
tp196
sg7
I26
sg8
F387.0
sg9
(F1045880.0
F752394.0
tp197
sg11
F387.0
sg12
I430429
sg13
(F50.050107
F14.294127
tp198
sg15
(F1045876.0
F752385.0
tp199
sg17
I430428
sba(iPreprocessData.GraphEdgeSegment
GraphEdgeSegment
p200
(dp201
g3
(lp202
I01
asg5
(F50.050242
F14.294298
tp203
sg7
I27
sg8
F387.0
sg9
(F1045876.0
F752385.0
tp204
sg11
F387.0
sg12
I3126
sg13
(F50.050152
F14.294244
tp205
sg15
(F1045867.0
F752379.0
tp206
sg17
I430429
sba(iPreprocessData.GraphEdgeSegment
GraphEdgeSegment
p207
(dp208
g3
(lp209
I01
asg5
(F50.050004
F14.293969
tp210
sg7
I28
sg8
F387.0
sg9
(F1045881.0
F752420.0
tp211
sg11
F387.0
sg12
I3108
sg13
(F50.05006
F14.293767
tp212
sg15
(F1045890.0
F752406.0
tp213
sg17
I3107
sba(iPreprocessData.GraphEdgeSegment
GraphEdgeSegment
p214
(dp215
g3
(lp216
I01
asg5
(F50.049991
F14.294072
tp217
sg7
I29
sg8
F387.0
sg9
(F1045890.0
F752406.0
tp218
sg11
F388.0
sg12
I228390
sg13
(F50.050004
F14.293969
tp219
sg15
(F1045892.0
F752399.0
tp220
sg17
I3108
sba.