(lp0
(iDownloader.PreprocessData.SegmentObj
SegmentObj
p1
(dp2
S'Segment_OSM_MARKING_VERSION'
p3
S'-1'
p4
sS'End'
p5
(F50.072556
F14.434735
tp6
sS'SegmentId'
p7
I0
sS'HasLoadedImages'
p8
(lp9
I01
aI01
aI01
aI01
aI01
aI01
asS'number_of_images'
p10
I6
sS'ErrorMessages'
p11
(lp12
I-1
aI-1
aI-1
aI-1
aI-1
aI-1
asS'DistinctNearbyVector'
p13
(lp14
NaNasS'Start'
p15
(F50.07245
F14.434785
tp16
sS'Score'
p17
F0.24
sS'DistinctLocations'
p18
(lp19
(F50.07245
F14.434785000000002
tp20
a(F50.072556
F14.434735000000002
tp21
asS'LocationsIndex'
p22
(lp23
I0
aI0
aI0
aI1
aI1
aI1
asba(iDownloader.PreprocessData.SegmentObj
SegmentObj
p24
(dp25
g3
g4
sg5
(F50.071453
F14.435258
tp26
sg7
I1
sg8
(lp27
sg10
I0
sg11
(lp28
sg13
(lp29
sg15
(F50.07245
F14.434785
tp30
sg17
I-1
sg18
(lp31
sg22
(lp32
sba(iDownloader.PreprocessData.SegmentObj
SegmentObj
p33
(dp34
g3
g4
sg5
(F50.072802
F14.436016
tp35
sg7
I2
sg8
(lp36
I01
aI01
aI01
aI01
aI01
aI01
aI01
aI01
aI01
aI01
aI01
aI01
aI01
aI01
aI01
aI01
aI01
aI01
asg10
I18
sg11
(lp37
I-1
aI-1
aI-1
aI-1
aI-1
aI-1
aI-1
aI-1
aI-1
aI-1
aI-1
aI-1
aI-1
aI-1
aI-1
aI-1
aI-1
aI-1
asg13
(lp38
NaNaNaNasg15
(F50.07245
F14.434785
tp39
sg17
F1.0
sg18
(lp40
(F50.07245
F14.434785000000002
tp41
a(F50.07256733477969
F14.4351953313253
tp42
a(F50.07268466811304
F14.43560566465864
tp43
a(F50.07280200000001
F14.436016000000002
tp44
asg22
(lp45
I0
aI0
aI0
aI1
aI1
aI1
aI1
aI1
aI1
aI2
aI2
aI2
aI2
aI2
aI2
aI3
aI3
aI3
asba.